; Function Attrs: mustprogress nofree norecurse nosync nounwind willreturn memory(argmem: readwrite) uwtable
define hidden void @VP8LHistogramInit(ptr noundef captures(none) initializes((3240, 3244)) %0, i32 noundef %1, i32 noundef %2) local_unnamed_addr #3 {
  %4 = getelementptr inbounds nuw i8, ptr %0, i64 3240
  store i32 %1, ptr %4, align 8, !tbaa !24
  %.not = icmp eq i32 %2, 0
  br i1 %.not, label %12, label %5

5:                                                ; preds = %3
  %6 = load ptr, ptr %0, align 8, !tbaa !18
  %7 = icmp sgt i32 %1, 0
  %8 = shl i32 4, %1
  %9 = add nuw i32 %8, 4408
  %10 = select i1 %7, i32 %9, i32 4408
  %11 = sext i32 %10 to i64
  tail call void @llvm.memset.p0.i64(ptr noundef nonnull align 8 dereferenceable(1) %0, i8 0, i64 %11, i1 false)
  store i32 %1, ptr %4, align 8, !tbaa !24
  store ptr %6, ptr %0, align 8, !tbaa !18
  br label %14

12:                                               ; preds = %3
  %13 = getelementptr inbounds nuw i8, ptr %0, i64 3244
  tail call void @llvm.memset.p0.i64(ptr noundef nonnull align 4 dereferenceable(41) %13, i8 0, i64 41, i1 false)
  br label %14

14:                                               ; preds = %12, %5
  ret void
}